target datalayout = "e-m:e-p270:32:32-p271:32:32-p272:64:64-i64:64-i128:128-f80:128-n8:16:32:64-S128"
target triple = "x86_64-pc-linux-gnu"

%"struct.google::protobuf::Message::ClassData" = type { ptr, ptr }
%"class.google::protobuf::internal::LogMessage" = type { i32, ptr, i32, %"class.std::__cxx11::basic_string" }
%"class.std::__cxx11::basic_string" = type { %"struct.std::__cxx11::basic_string<char>::_Alloc_hider", i64, %union.anon }
%"struct.std::__cxx11::basic_string<char>::_Alloc_hider" = type { ptr }
%union.anon = type { i64, [8 x i8] }
%"class.google::protobuf::internal::LogFinisher" = type { i8 }
%class.anon.0 = type { i8 }
%"struct.google::protobuf::Metadata" = type { ptr, ptr }
%"class.google::protobuf::Descriptor" = type { %"class.google::protobuf::internal::SymbolBase", i8, i16, i32, ptr, ptr, ptr, ptr, ptr, ptr, ptr, ptr, ptr, ptr, ptr, ptr, i32, i32, i32, i32, i32, i32, i32, i32 }
%"class.google::protobuf::internal::SymbolBase" = type { i8 }

@.str = private unnamed_addr constant [140 x i8] c"generated/home/dtcxzyw/WorkSpace/Projects/compilers/llvm-opt-benchmark/bench/opencv/opencv/3rdparty/protobuf/src/google/protobuf/message.cc\00", align 1
@.str.1 = private unnamed_addr constant [55 x i8] c"CHECK failed: (from.GetDescriptor()) == (descriptor): \00", align 1
@.str.2 = private unnamed_addr constant [59 x i8] c": Tried to copy from a message with a different type. to: \00", align 1
@.str.3 = private unnamed_addr constant [9 x i8] c", from: \00", align 1

; Function Attrs: inlinehint mustprogress nounwind uwtable
define internal noundef ptr @"_ZZN6google8protobuf7Message8CopyFromERKS1_ENK3$_0cvPFvPS1_S3_EEv"(ptr noundef nonnull align 1 dereferenceable(1) %0) #6 align 2 {
  %2 = alloca ptr, align 8
  store ptr %0, ptr %2, align 8, !tbaa !14
  ret ptr @"_ZZN6google8protobuf7Message8CopyFromERKS1_EN3$_08__invokeEPS1_S3_"
}

; Function Attrs: inlinehint mustprogress nounwind uwtable
define linkonce_odr hidden noundef nonnull align 8 dereferenceable(32) ptr @_ZNK6google8protobuf10Descriptor9full_nameB5cxx11Ev(ptr noundef nonnull align 8 dereferenceable(136) %0) #6 comdat align 2 {
  %2 = alloca ptr, align 8
  store ptr %0, ptr %2, align 8, !tbaa !18
  %3 = load ptr, ptr %2, align 8
  %4 = getelementptr inbounds nuw %"class.google::protobuf::Descriptor", ptr %3, i32 0, i32 4
  %5 = load ptr, ptr %4, align 8, !tbaa !23
  %6 = getelementptr inbounds %"class.std::__cxx11::basic_string", ptr %5, i64 1
  ret ptr %6
}

; Function Attrs: mustprogress uwtable
define linkonce_odr hidden noundef ptr @_ZNK6google8protobuf7Message13GetDescriptorEv(ptr noundef nonnull align 8 dereferenceable(16) %0) #4 comdat align 2 {
  %2 = alloca ptr, align 8
  %3 = alloca %"struct.google::protobuf::Metadata", align 8
  store ptr %0, ptr %2, align 8, !tbaa !3
  %4 = load ptr, ptr %2, align 8
  call void @llvm.lifetime.start.p0(i64 16, ptr %3) #3
  %5 = load ptr, ptr %4, align 8, !tbaa !8
  %6 = getelementptr inbounds ptr, ptr %5, i64 17
  %7 = load ptr, ptr %6, align 8
  %8 = call { ptr, ptr } %7(ptr noundef nonnull align 8 dereferenceable(16) %4)
  %9 = getelementptr inbounds nuw { ptr, ptr }, ptr %3, i32 0, i32 0
  %10 = extractvalue { ptr, ptr } %8, 0
  store ptr %10, ptr %9, align 8
  %11 = getelementptr inbounds nuw { ptr, ptr }, ptr %3, i32 0, i32 1
  %12 = extractvalue { ptr, ptr } %8, 1
  store ptr %12, ptr %11, align 8
  %13 = getelementptr inbounds nuw %"struct.google::protobuf::Metadata", ptr %3, i32 0, i32 0
  %14 = load ptr, ptr %13, align 8, !tbaa !20
  call void @llvm.lifetime.end.p0(i64 16, ptr %3) #3
  ret ptr %14
}

; Function Attrs: mustprogress uwtable
define hidden void @_ZN6google8protobuf7Message8CopyFromERKS1_(ptr noundef nonnull align 8 dereferenceable(16) %0, ptr noundef nonnull align 8 dereferenceable(16) %1) unnamed_addr #4 align 2 personality ptr @__gxx_personality_v0 {
  %3 = alloca ptr, align 8
  %4 = alloca ptr, align 8
  %5 = alloca ptr, align 8
  %6 = alloca ptr, align 8
  %7 = alloca ptr, align 8
  %8 = alloca ptr, align 8
  %9 = alloca %"class.google::protobuf::internal::LogMessage", align 8
  %10 = alloca i1, align 1
  %11 = alloca i1, align 1
  %12 = alloca ptr, align 8
  %13 = alloca i32, align 4
  %14 = alloca %"class.google::protobuf::internal::LogFinisher", align 1
  %15 = alloca %class.anon.0, align 1
  store ptr %0, ptr %3, align 8, !tbaa !3
  store ptr %1, ptr %4, align 8, !tbaa !3
  %16 = load ptr, ptr %3, align 8
  %17 = load ptr, ptr %4, align 8, !tbaa !3
  %18 = icmp eq ptr %17, %16
  br i1 %18, label %19, label %20

19:                                               ; preds = %2
  br label %98

20:                                               ; preds = %2
  call void @llvm.lifetime.start.p0(i64 8, ptr %5) #3
  %21 = load ptr, ptr %16, align 8, !tbaa !8
  %22 = getelementptr inbounds ptr, ptr %21, i64 18
  %23 = load ptr, ptr %22, align 8
  %24 = call noundef ptr %23(ptr noundef nonnull align 8 dereferenceable(16) %16)
  store ptr %24, ptr %5, align 8, !tbaa !10
  call void @llvm.lifetime.start.p0(i64 8, ptr %6) #3
  %25 = load ptr, ptr %4, align 8, !tbaa !3
  %26 = load ptr, ptr %25, align 8, !tbaa !8
  %27 = getelementptr inbounds ptr, ptr %26, i64 18
  %28 = load ptr, ptr %27, align 8
  %29 = call noundef ptr %28(ptr noundef nonnull align 8 dereferenceable(16) %25)
  store ptr %29, ptr %6, align 8, !tbaa !10
  call void @llvm.lifetime.start.p0(i64 8, ptr %7) #3
  %30 = load ptr, ptr %5, align 8, !tbaa !10
  %31 = icmp ne ptr %30, null
  br i1 %31, label %32, label %36

32:                                               ; preds = %20
  %33 = load ptr, ptr %5, align 8, !tbaa !10
  %34 = getelementptr inbounds nuw %"struct.google::protobuf::Message::ClassData", ptr %33, i32 0, i32 0
  %35 = load ptr, ptr %34, align 8, !tbaa !17
  br label %37

36:                                               ; preds = %20
  br label %37

37:                                               ; preds = %36, %32
  %38 = phi ptr [ %35, %32 ], [ null, %36 ]
  store ptr %38, ptr %7, align 8, !tbaa !14
  %39 = load ptr, ptr %5, align 8, !tbaa !10
  %40 = icmp eq ptr %39, null
  br i1 %40, label %45, label %41

41:                                               ; preds = %37
  %42 = load ptr, ptr %5, align 8, !tbaa !10
  %43 = load ptr, ptr %6, align 8, !tbaa !10
  %44 = icmp ne ptr %42, %43
  br i1 %44, label %45, label %95

45:                                               ; preds = %41, %37
  call void @llvm.lifetime.start.p0(i64 8, ptr %8) #3
  %46 = call noundef ptr @_ZNK6google8protobuf7Message13GetDescriptorEv(ptr noundef nonnull align 8 dereferenceable(16) %16)
  store ptr %46, ptr %8, align 8, !tbaa !18
  %47 = load ptr, ptr %4, align 8, !tbaa !3
  %48 = call noundef ptr @_ZNK6google8protobuf7Message13GetDescriptorEv(ptr noundef nonnull align 8 dereferenceable(16) %47)
  %49 = load ptr, ptr %8, align 8, !tbaa !18
  %50 = icmp eq ptr %48, %49
  store i1 false, ptr %10, align 1
  store i1 false, ptr %11, align 1
  call void @llvm.lifetime.start.p0(i64 1, ptr %14) #3
  br i1 %50, label %51, label %52

51:                                               ; preds = %45
  br label %72

52:                                               ; preds = %45
  call void @llvm.lifetime.start.p0(i64 56, ptr %9) #3
  store i1 true, ptr %10, align 1
  call void @_ZN6google8protobuf8internal10LogMessageC1ENS0_8LogLevelEPKci(ptr noundef nonnull align 8 dereferenceable(56) %9, i32 noundef 3, ptr noundef @.str, i32 noundef 106)
  store i1 true, ptr %11, align 1
  %53 = invoke noundef nonnull align 8 dereferenceable(56) ptr @_ZN6google8protobuf8internal10LogMessagelsEPKc(ptr noundef nonnull align 8 dereferenceable(56) %9, ptr noundef @.str.1)
          to label %54 unwind label %80

54:                                               ; preds = %52
  %55 = invoke noundef nonnull align 8 dereferenceable(56) ptr @_ZN6google8protobuf8internal10LogMessagelsEPKc(ptr noundef nonnull align 8 dereferenceable(56) %53, ptr noundef @.str.2)
          to label %56 unwind label %80

56:                                               ; preds = %54
  %57 = load ptr, ptr %8, align 8, !tbaa !18
  %58 = invoke noundef nonnull align 8 dereferenceable(32) ptr @_ZNK6google8protobuf10Descriptor9full_nameB5cxx11Ev(ptr noundef nonnull align 8 dereferenceable(136) %57)
          to label %59 unwind label %80

59:                                               ; preds = %56
  %60 = invoke noundef nonnull align 8 dereferenceable(56) ptr @_ZN6google8protobuf8internal10LogMessagelsERKNSt7__cxx1112basic_stringIcSt11char_traitsIcESaIcEEE(ptr noundef nonnull align 8 dereferenceable(56) %55, ptr noundef nonnull align 8 dereferenceable(32) %58)
          to label %61 unwind label %80

61:                                               ; preds = %59
  %62 = invoke noundef nonnull align 8 dereferenceable(56) ptr @_ZN6google8protobuf8internal10LogMessagelsEPKc(ptr noundef nonnull align 8 dereferenceable(56) %60, ptr noundef @.str.3)
          to label %63 unwind label %80

63:                                               ; preds = %61
  %64 = load ptr, ptr %4, align 8, !tbaa !3
  %65 = invoke noundef ptr @_ZNK6google8protobuf7Message13GetDescriptorEv(ptr noundef nonnull align 8 dereferenceable(16) %64)
          to label %66 unwind label %80

66:                                               ; preds = %63
  %67 = invoke noundef nonnull align 8 dereferenceable(32) ptr @_ZNK6google8protobuf10Descriptor9full_nameB5cxx11Ev(ptr noundef nonnull align 8 dereferenceable(136) %65)
          to label %68 unwind label %80

68:                                               ; preds = %66
  %69 = invoke noundef nonnull align 8 dereferenceable(56) ptr @_ZN6google8protobuf8internal10LogMessagelsERKNSt7__cxx1112basic_stringIcSt11char_traitsIcESaIcEEE(ptr noundef nonnull align 8 dereferenceable(56) %62, ptr noundef nonnull align 8 dereferenceable(32) %67)
          to label %70 unwind label %80

70:                                               ; preds = %68
  invoke void @_ZN6google8protobuf8internal11LogFinisheraSERNS1_10LogMessageE(ptr noundef nonnull align 1 dereferenceable(1) %14, ptr noundef nonnull align 8 dereferenceable(56) %69)
          to label %71 unwind label %84

71:                                               ; preds = %70
  br label %72

72:                                               ; preds = %71, %51
  call void @llvm.lifetime.end.p0(i64 1, ptr %14) #3
  %73 = load i1, ptr %11, align 1
  br i1 %73, label %74, label %75

74:                                               ; preds = %72
  call void @_ZN6google8protobuf8internal10LogMessageD1Ev(ptr noundef nonnull align 8 dereferenceable(56) %9) #3
  br label %75

75:                                               ; preds = %74, %72
  %76 = load i1, ptr %10, align 1
  br i1 %76, label %77, label %78

77:                                               ; preds = %75
  call void @llvm.lifetime.end.p0(i64 56, ptr %9) #3
  br label %78

78:                                               ; preds = %77, %75
  call void @llvm.lifetime.start.p0(i64 1, ptr %15) #3
  %79 = call noundef ptr @"_ZZN6google8protobuf7Message8CopyFromERKS1_ENK3$_0cvPFvPS1_S3_EEv"(ptr noundef nonnull align 1 dereferenceable(1) %15) #3
  store ptr %79, ptr %7, align 8, !tbaa !14
  call void @llvm.lifetime.end.p0(i64 1, ptr %15) #3
  call void @llvm.lifetime.end.p0(i64 8, ptr %8) #3
  br label %95

80:                                               ; preds = %68, %66, %63, %61, %59, %56, %54, %52
  %81 = landingpad { ptr, i32 }
          cleanup
  %82 = extractvalue { ptr, i32 } %81, 0
  store ptr %82, ptr %12, align 8
  %83 = extractvalue { ptr, i32 } %81, 1
  store i32 %83, ptr %13, align 4
  br label %88

84:                                               ; preds = %70
  %85 = landingpad { ptr, i32 }
          cleanup
  %86 = extractvalue { ptr, i32 } %85, 0
  store ptr %86, ptr %12, align 8
  %87 = extractvalue { ptr, i32 } %85, 1
  store i32 %87, ptr %13, align 4
  call void @llvm.lifetime.end.p0(i64 1, ptr %14) #3
  br label %88

88:                                               ; preds = %84, %80
  %89 = load i1, ptr %11, align 1
  br i1 %89, label %90, label %91

90:                                               ; preds = %88
  call void @_ZN6google8protobuf8internal10LogMessageD1Ev(ptr noundef nonnull align 8 dereferenceable(56) %9) #3
  br label %91

91:                                               ; preds = %90, %88
  %92 = load i1, ptr %10, align 1
  br i1 %92, label %93, label %94

93:                                               ; preds = %91
  call void @llvm.lifetime.end.p0(i64 56, ptr %9) #3
  br label %94

94:                                               ; preds = %93, %91
  call void @llvm.lifetime.end.p0(i64 8, ptr %8) #3
  call void @llvm.lifetime.end.p0(i64 8, ptr %7) #3
  call void @llvm.lifetime.end.p0(i64 8, ptr %6) #3
  call void @llvm.lifetime.end.p0(i64 8, ptr %5) #3
  br label %99

95:                                               ; preds = %78, %41
  %96 = load ptr, ptr %7, align 8, !tbaa !14
  %97 = load ptr, ptr %4, align 8, !tbaa !3
  call void %96(ptr noundef %16, ptr noundef nonnull align 8 dereferenceable(16) %97)
  call void @llvm.lifetime.end.p0(i64 8, ptr %7) #3
  call void @llvm.lifetime.end.p0(i64 8, ptr %6) #3
  call void @llvm.lifetime.end.p0(i64 8, ptr %5) #3
  br label %98

98:                                               ; preds = %95, %19
  ret void

99:                                               ; preds = %94
  %100 = load ptr, ptr %12, align 8
  %101 = load i32, ptr %13, align 4
  %102 = insertvalue { ptr, i32 } poison, ptr %100, 0
  %103 = insertvalue { ptr, i32 } %102, i32 %101, 1
  resume { ptr, i32 } %103
}