; Function Attrs: mustprogress uwtable
define hidden void @_ZN6google8protobuf7Message8CopyFromERKS1_(ptr noundef nonnull align 8 dereferenceable(16) %0, ptr noundef nonnull align 8 dereferenceable(16) %1) unnamed_addr #3 align 2 personality ptr @__gxx_personality_v0 {
  %3 = alloca %"class.google::protobuf::internal::LogMessage", align 8
  %4 = alloca %"class.google::protobuf::internal::LogFinisher", align 1
  %5 = icmp eq ptr %1, %0
  br i1 %5, label %56, label %6

6:                                                ; preds = %2
  %7 = load ptr, ptr %0, align 8, !tbaa !3
  %8 = getelementptr inbounds nuw i8, ptr %7, i64 144
  %9 = load ptr, ptr %8, align 8
  %10 = tail call noundef ptr %9(ptr noundef nonnull align 8 dereferenceable(16) %0)
  %11 = load ptr, ptr %1, align 8, !tbaa !3
  %12 = getelementptr inbounds nuw i8, ptr %11, i64 144
  %13 = load ptr, ptr %12, align 8
  %14 = tail call noundef ptr %13(ptr noundef nonnull align 8 dereferenceable(16) %1)
  %.not = icmp eq ptr %10, null
  br i1 %.not, label %.thread, label %15

15:                                               ; preds = %6
  %16 = load ptr, ptr %10, align 8, !tbaa !10
  %.not27 = icmp eq ptr %10, %14
  br i1 %.not27, label %.critedge31, label %.thread

.thread:                                          ; preds = %6, %15
  %17 = load ptr, ptr %0, align 8, !tbaa !3
  %18 = getelementptr inbounds nuw i8, ptr %17, i64 136
  %19 = load ptr, ptr %18, align 8
  %20 = tail call { ptr, ptr } %19(ptr noundef nonnull align 8 dereferenceable(16) %0)
  %21 = extractvalue { ptr, ptr } %20, 0
  %22 = load ptr, ptr %1, align 8, !tbaa !3
  %23 = getelementptr inbounds nuw i8, ptr %22, i64 136
  %24 = load ptr, ptr %23, align 8
  %25 = tail call { ptr, ptr } %24(ptr noundef nonnull align 8 dereferenceable(16) %1)
  %26 = extractvalue { ptr, ptr } %25, 0
  %.not29 = icmp eq ptr %26, %21
  call void @llvm.lifetime.start.p0(i64 1, ptr nonnull %4) #25
  br i1 %.not29, label %.thread34, label %27

27:                                               ; preds = %.thread
  call void @llvm.lifetime.start.p0(i64 56, ptr nonnull %3) #25
  call void @_ZN6google8protobuf8internal10LogMessageC1ENS0_8LogLevelEPKci(ptr noundef nonnull align 8 dereferenceable(56) %3, i32 noundef 3, ptr noundef nonnull @.str, i32 noundef 106)
  %28 = invoke noundef nonnull align 8 dereferenceable(56) ptr @_ZN6google8protobuf8internal10LogMessagelsEPKc(ptr noundef nonnull align 8 dereferenceable(56) %3, ptr noundef nonnull @.str.1)
          to label %29 unwind label %51

29:                                               ; preds = %27
  %30 = invoke noundef nonnull align 8 dereferenceable(56) ptr @_ZN6google8protobuf8internal10LogMessagelsEPKc(ptr noundef nonnull align 8 dereferenceable(56) %28, ptr noundef nonnull @.str.2)
          to label %31 unwind label %51

31:                                               ; preds = %29
  %32 = getelementptr inbounds nuw i8, ptr %21, i64 8
  %33 = load ptr, ptr %32, align 8, !tbaa !11
  %34 = getelementptr inbounds nuw i8, ptr %33, i64 32
  %35 = invoke noundef nonnull align 8 dereferenceable(56) ptr @_ZN6google8protobuf8internal10LogMessagelsERKNSt7__cxx1112basic_stringIcSt11char_traitsIcESaIcEEE(ptr noundef nonnull align 8 dereferenceable(56) %30, ptr noundef nonnull align 8 dereferenceable(32) %34)
          to label %36 unwind label %51

36:                                               ; preds = %31
  %37 = invoke noundef nonnull align 8 dereferenceable(56) ptr @_ZN6google8protobuf8internal10LogMessagelsEPKc(ptr noundef nonnull align 8 dereferenceable(56) %35, ptr noundef nonnull @.str.3)
          to label %38 unwind label %51

38:                                               ; preds = %36
  %39 = load ptr, ptr %1, align 8, !tbaa !3
  %40 = getelementptr inbounds nuw i8, ptr %39, i64 136
  %41 = load ptr, ptr %40, align 8
  %42 = invoke { ptr, ptr } %41(ptr noundef nonnull align 8 dereferenceable(16) %1)
          to label %43 unwind label %51

43:                                               ; preds = %38
  %44 = extractvalue { ptr, ptr } %42, 0
  %45 = getelementptr inbounds nuw i8, ptr %44, i64 8
  %46 = load ptr, ptr %45, align 8, !tbaa !11
  %47 = getelementptr inbounds nuw i8, ptr %46, i64 32
  %48 = invoke noundef nonnull align 8 dereferenceable(56) ptr @_ZN6google8protobuf8internal10LogMessagelsERKNSt7__cxx1112basic_stringIcSt11char_traitsIcESaIcEEE(ptr noundef nonnull align 8 dereferenceable(56) %37, ptr noundef nonnull align 8 dereferenceable(32) %47)
          to label %49 unwind label %51

49:                                               ; preds = %43
  invoke void @_ZN6google8protobuf8internal11LogFinisheraSERNS1_10LogMessageE(ptr noundef nonnull align 1 dereferenceable(1) %4, ptr noundef nonnull align 8 dereferenceable(56) %48)
          to label %50 unwind label %53

.thread34:                                        ; preds = %.thread
  call void @llvm.lifetime.end.p0(i64 1, ptr nonnull %4) #25
  br label %.critedge31

50:                                               ; preds = %49
  call void @llvm.lifetime.end.p0(i64 1, ptr nonnull %4) #25
  call void @_ZN6google8protobuf8internal10LogMessageD1Ev(ptr noundef nonnull align 8 dereferenceable(56) %3) #25
  call void @llvm.lifetime.end.p0(i64 56, ptr nonnull %3) #25
  br label %.critedge31

51:                                               ; preds = %38, %43, %36, %31, %29, %27
  %52 = landingpad { ptr, i32 }
          cleanup
  br label %55

53:                                               ; preds = %49
  %54 = landingpad { ptr, i32 }
          cleanup
  call void @llvm.lifetime.end.p0(i64 1, ptr nonnull %4) #25
  br label %55

55:                                               ; preds = %51, %53
  %.pn = phi { ptr, i32 } [ %54, %53 ], [ %52, %51 ]
  call void @_ZN6google8protobuf8internal10LogMessageD1Ev(ptr noundef nonnull align 8 dereferenceable(56) %3) #25
  call void @llvm.lifetime.end.p0(i64 56, ptr nonnull %3) #25
  resume { ptr, i32 } %.pn

.critedge31:                                      ; preds = %50, %.thread34, %15
  %.022 = phi ptr [ %16, %15 ], [ @"_ZZN6google8protobuf7Message8CopyFromERKS1_EN3$_08__invokeEPS1_S3_", %.thread34 ], [ @"_ZZN6google8protobuf7Message8CopyFromERKS1_EN3$_08__invokeEPS1_S3_", %50 ]
  call void %.022(ptr noundef nonnull %0, ptr noundef nonnull align 8 dereferenceable(16) %1)
  br label %56

56:                                               ; preds = %2, %.critedge31
  ret void
}